target datalayout = "e-m:e-p270:32:32-p271:32:32-p272:64:64-i64:64-i128:128-f80:128-n8:16:32:64-S128"
target triple = "x86_64-pc-linux-gnu"

; Function Attrs: nounwind sspstrong uwtable
define internal i64 @fun_so_cp50221_decoder(ptr noundef %0, ptr noundef %1, i64 noundef %2, ptr noundef %3, i64 noundef %4) #0 {
  %6 = alloca i64, align 8
  %7 = alloca ptr, align 8
  %8 = alloca ptr, align 8
  %9 = alloca i64, align 8
  %10 = alloca ptr, align 8
  %11 = alloca i64, align 8
  %12 = alloca ptr, align 8
  %13 = alloca i32, align 4
  store ptr %0, ptr %7, align 8, !tbaa !6
  store ptr %1, ptr %8, align 8, !tbaa !10
  store i64 %2, ptr %9, align 8, !tbaa !13
  store ptr %3, ptr %10, align 8, !tbaa !10
  store i64 %4, ptr %11, align 8, !tbaa !13
  call void @llvm.lifetime.start.p0(i64 8, ptr %12) #3
  %14 = load ptr, ptr %7, align 8, !tbaa !6
  store ptr %14, ptr %12, align 8, !tbaa !10
  %15 = load ptr, ptr %8, align 8, !tbaa !10
  %16 = getelementptr inbounds i8, ptr %15, i64 0
  %17 = load i8, ptr %16, align 1, !tbaa !12
  %18 = zext i8 %17 to i32
  switch i32 %18, label %54 [
    i32 27, label %19
    i32 14, label %50
    i32 15, label %52
  ]

19:                                               ; preds = %5
  %20 = load ptr, ptr %8, align 8, !tbaa !10
  %21 = getelementptr inbounds i8, ptr %20, i64 1
  %22 = load i8, ptr %21, align 1, !tbaa !12
  %23 = zext i8 %22 to i32
  %24 = icmp eq i32 %23, 40
  br i1 %24, label %25, label %37

25:                                               ; preds = %19
  %26 = load ptr, ptr %8, align 8, !tbaa !10
  %27 = load i64, ptr %9, align 8, !tbaa !13
  %28 = sub i64 %27, 1
  %29 = getelementptr inbounds nuw i8, ptr %26, i64 %28
  %30 = load i8, ptr %29, align 1, !tbaa !12
  %31 = zext i8 %30 to i32
  switch i32 %31, label %36 [
    i32 66, label %32
    i32 74, label %32
    i32 73, label %34
  ]

32:                                               ; preds = %25, %25
  %33 = load ptr, ptr %12, align 8, !tbaa !10
  store i8 0, ptr %33, align 1, !tbaa !12
  br label %36

34:                                               ; preds = %25
  %35 = load ptr, ptr %12, align 8, !tbaa !10
  store i8 3, ptr %35, align 1, !tbaa !12
  br label %36

36:                                               ; preds = %25, %34, %32
  br label %49

37:                                               ; preds = %19
  %38 = load ptr, ptr %8, align 8, !tbaa !10
  %39 = load i64, ptr %9, align 8, !tbaa !13
  %40 = sub i64 %39, 1
  %41 = getelementptr inbounds nuw i8, ptr %38, i64 %40
  %42 = load i8, ptr %41, align 1, !tbaa !12
  %43 = zext i8 %42 to i32
  switch i32 %43, label %48 [
    i32 64, label %44
    i32 66, label %46
  ]

44:                                               ; preds = %37
  %45 = load ptr, ptr %12, align 8, !tbaa !10
  store i8 1, ptr %45, align 1, !tbaa !12
  br label %48

46:                                               ; preds = %37
  %47 = load ptr, ptr %12, align 8, !tbaa !10
  store i8 2, ptr %47, align 1, !tbaa !12
  br label %48

48:                                               ; preds = %37, %46, %44
  br label %49

49:                                               ; preds = %48, %36
  store i64 0, ptr %6, align 8
  store i32 1, ptr %13, align 4
  br label %105

50:                                               ; preds = %5
  %51 = load ptr, ptr %12, align 8, !tbaa !10
  store i8 3, ptr %51, align 1, !tbaa !12
  store i64 0, ptr %6, align 8
  store i32 1, ptr %13, align 4
  br label %105

52:                                               ; preds = %5
  %53 = load ptr, ptr %12, align 8, !tbaa !10
  store i8 0, ptr %53, align 1, !tbaa !12
  store i64 0, ptr %6, align 8
  store i32 1, ptr %13, align 4
  br label %105

54:                                               ; preds = %5
  %55 = load ptr, ptr %12, align 8, !tbaa !10
  %56 = load i8, ptr %55, align 1, !tbaa !12
  %57 = zext i8 %56 to i32
  %58 = icmp eq i32 %57, 3
  br i1 %58, label %76, label %59

59:                                               ; preds = %54
  %60 = load ptr, ptr %8, align 8, !tbaa !10
  %61 = getelementptr inbounds i8, ptr %60, i64 0
  %62 = load i8, ptr %61, align 1, !tbaa !12
  %63 = zext i8 %62 to i32
  %64 = icmp sle i32 161, %63
  br i1 %64, label %65, label %87

65:                                               ; preds = %59
  %66 = load ptr, ptr %8, align 8, !tbaa !10
  %67 = getelementptr inbounds i8, ptr %66, i64 0
  %68 = load i8, ptr %67, align 1, !tbaa !12
  %69 = zext i8 %68 to i32
  %70 = icmp sle i32 %69, 223
  br i1 %70, label %71, label %87

71:                                               ; preds = %65
  %72 = load ptr, ptr %12, align 8, !tbaa !10
  %73 = load i8, ptr %72, align 1, !tbaa !12
  %74 = zext i8 %73 to i32
  %75 = icmp eq i32 %74, 0
  br i1 %75, label %76, label %87

76:                                               ; preds = %71, %54
  %77 = load ptr, ptr %10, align 8, !tbaa !10
  %78 = getelementptr inbounds i8, ptr %77, i64 0
  store i8 -114, ptr %78, align 1, !tbaa !12
  %79 = load ptr, ptr %8, align 8, !tbaa !10
  %80 = getelementptr inbounds i8, ptr %79, i64 0
  %81 = load i8, ptr %80, align 1, !tbaa !12
  %82 = zext i8 %81 to i32
  %83 = or i32 %82, 128
  %84 = trunc i32 %83 to i8
  %85 = load ptr, ptr %10, align 8, !tbaa !10
  %86 = getelementptr inbounds i8, ptr %85, i64 1
  store i8 %84, ptr %86, align 1, !tbaa !12
  br label %104

87:                                               ; preds = %71, %65, %59
  %88 = load ptr, ptr %8, align 8, !tbaa !10
  %89 = getelementptr inbounds i8, ptr %88, i64 0
  %90 = load i8, ptr %89, align 1, !tbaa !12
  %91 = zext i8 %90 to i32
  %92 = or i32 %91, 128
  %93 = trunc i32 %92 to i8
  %94 = load ptr, ptr %10, align 8, !tbaa !10
  %95 = getelementptr inbounds i8, ptr %94, i64 0
  store i8 %93, ptr %95, align 1, !tbaa !12
  %96 = load ptr, ptr %8, align 8, !tbaa !10
  %97 = getelementptr inbounds i8, ptr %96, i64 1
  %98 = load i8, ptr %97, align 1, !tbaa !12
  %99 = zext i8 %98 to i32
  %100 = or i32 %99, 128
  %101 = trunc i32 %100 to i8
  %102 = load ptr, ptr %10, align 8, !tbaa !10
  %103 = getelementptr inbounds i8, ptr %102, i64 1
  store i8 %101, ptr %103, align 1, !tbaa !12
  br label %104

104:                                              ; preds = %87, %76
  store i64 2, ptr %6, align 8
  store i32 1, ptr %13, align 4
  br label %105

105:                                              ; preds = %104, %52, %50, %49
  call void @llvm.lifetime.end.p0(i64 8, ptr %12) #3
  %106 = load i64, ptr %6, align 8
  ret i64 %106
}