; Function Attrs: mustprogress nofree norecurse nosync nounwind sspstrong willreturn memory(argmem: readwrite) uwtable
define internal range(i64 0, 3) i64 @fun_so_cp50221_decoder(ptr noundef captures(none) %0, ptr noundef readonly captures(none) %1, i64 noundef %2, ptr noundef writeonly captures(none) %3, i64 %4) #4 {
  %6 = load i8, ptr %1, align 1, !tbaa !6
  switch i8 %6, label %22 [
    i8 27, label %7
    i8 14, label %20
    i8 15, label %21
  ]

7:                                                ; preds = %5
  %8 = getelementptr inbounds nuw i8, ptr %1, i64 1
  %9 = load i8, ptr %8, align 1, !tbaa !6
  %10 = icmp eq i8 %9, 40
  %11 = getelementptr i8, ptr %1, i64 %2
  %12 = getelementptr i8, ptr %11, i64 -1
  %13 = load i8, ptr %12, align 1, !tbaa !6
  br i1 %10, label %14, label %17

14:                                               ; preds = %7
  switch i8 %13, label %38 [
    i8 66, label %15
    i8 74, label %15
    i8 73, label %16
  ]

15:                                               ; preds = %14, %14
  store i8 0, ptr %0, align 1, !tbaa !6
  br label %38

16:                                               ; preds = %14
  store i8 3, ptr %0, align 1, !tbaa !6
  br label %38

17:                                               ; preds = %7
  switch i8 %13, label %38 [
    i8 64, label %18
    i8 66, label %19
  ]

18:                                               ; preds = %17
  store i8 1, ptr %0, align 1, !tbaa !6
  br label %38

19:                                               ; preds = %17
  store i8 2, ptr %0, align 1, !tbaa !6
  br label %38

20:                                               ; preds = %5
  store i8 3, ptr %0, align 1, !tbaa !6
  br label %38

21:                                               ; preds = %5
  store i8 0, ptr %0, align 1, !tbaa !6
  br label %38

22:                                               ; preds = %5
  %23 = load i8, ptr %0, align 1, !tbaa !6
  %24 = icmp eq i8 %23, 3
  br i1 %24, label %28, label %25

25:                                               ; preds = %22
  %26 = add i8 %6, 95
  %or.cond = icmp ult i8 %26, 63
  %27 = icmp eq i8 %23, 0
  %or.cond26 = and i1 %or.cond, %27
  br i1 %or.cond26, label %28, label %32

28:                                               ; preds = %25, %22
  store i8 -114, ptr %3, align 1, !tbaa !6
  %29 = load i8, ptr %1, align 1, !tbaa !6
  %30 = or i8 %29, -128
  %31 = getelementptr inbounds nuw i8, ptr %3, i64 1
  store i8 %30, ptr %31, align 1, !tbaa !6
  br label %38

32:                                               ; preds = %25
  %33 = or i8 %6, -128
  store i8 %33, ptr %3, align 1, !tbaa !6
  %34 = getelementptr inbounds nuw i8, ptr %1, i64 1
  %35 = load i8, ptr %34, align 1, !tbaa !6
  %36 = or i8 %35, -128
  %37 = getelementptr inbounds nuw i8, ptr %3, i64 1
  store i8 %36, ptr %37, align 1, !tbaa !6
  br label %38

38:                                               ; preds = %28, %32, %16, %15, %14, %19, %18, %17, %21, %20
  %.0 = phi i64 [ 0, %21 ], [ 0, %20 ], [ 0, %17 ], [ 0, %18 ], [ 0, %19 ], [ 0, %14 ], [ 0, %15 ], [ 0, %16 ], [ 2, %32 ], [ 2, %28 ]
  ret i64 %.0
}